
 Start  Stop   Length Name                   Class            Group
 00000H 02BF6H 02BF7H CODE                   CODE

 Origin   Group

  Address         Publics by Value

 0000:072D       MSG_FILE_NOW_COPY
 0000:0765       MSG_FILE_COPY_MRK_SRT
 0000:0798       MSG_FILE_COPY_MARK
 0000:0B87       NOW_DTA_ADRS
 0000:0BE0       FDCKDNO
 0000:0BE4       FDCKSET
 0000:0C70       CMMD_SRT
 0000:0CDA       CMMD_END
 0000:0D04       CMMD_CD
 0000:0D2D       CMMD_MD
 0000:0D62       CMMD_COPYX
 0000:0DC7       CMMD_DFREE
 0000:0F50       PRNAH
 0000:0F8B       PRINT
 0000:0FA2       DECSTR
 0000:0FD9       INPUT
 0000:0FFA       STRDEC
 0000:1033       HEXSTR
 0000:1075       STRHEX
 0000:10A2       BINSTR
 0000:10CD       STRBIN
 0000:10EA       STRCMPW
 0000:1112       CLS
 0000:111E       CSLON
 0000:1125       CSLOFF
 0000:112C       INPCHR
 0000:1137       CHPUT
 0000:1140       KESCAP
 0000:117F       KEYLOD
 0000:1180       PRNAB
 0000:1194       LOCATE
 0000:11CF       LFPRN
 0000:11D8       D10STR
 0000:121D       STRZTS
 0000:1239       MEMCPY
 0000:1240       TXCOLR
 0000:12B0       STRSET
 0000:12C6       STRSETZ
 0000:12DC       STRFILL
 0000:1304       STRCLEAR
 0000:1315       STRZEROC
 0000:1326       STRSETADD
 0000:1340       STRLENGTH
 0000:1351       STRLENSPZ
 0000:136C       STRCAPS
 0000:1392       STRXCHG
 0000:13C0       VW_FREAM
 0000:1406       VW_ERRBOX
 0000:144F       VW_INPUT
 0000:146E       VW_PRINT
 0000:1485       VW_CHPUT
 0000:148F       VW_LOCATE
 0000:1493       VW_TXCOLR
 0000:1497       VW_CLS
 0000:14BF       VW_USERKEY
 0000:14D0       VW_INPUT_LENG
 0000:15A0       XCPX
 0000:1751       XFILE_DATE
 0000:1753       XFILE_TIME
 0000:1770       INT24HX_SRT
 0000:1780       INT24HX_END
 0000:1781       INT24HX_ERRGET
 0000:17B0       ERRBOX
 0000:18A0       DSPMESS
 0000:18B1       DSPPRNT
 0000:18C2       DSPPRTS
 0000:18C6       DSPLANGUAGE
 0000:2040       CCCIN
 0000:2058       CCCOUT
 0000:2074       CCCRD
 0000:208B       CCCLOC
 0000:20A5       CCCCOL
 0000:20B7       CCCCLA
 0000:20BB       CCCCGT
 0000:20BF       CCCINB
 0000:20E1       CCCFKY
 0000:24E0       STRING
 0000:25E1       STRINGX
 0000:26E2       STRINGX2
 0000:27E3       FLNAME
 0000:27F3       PATHNAME
 0000:28F4       PATH_FD_DRV
 0000:29F5       PATH_HD_DSK
 0000:2AF6       PATH_USER
