
 Start  Stop   Length Name                   Class            Group
 00000H 04E55H 04E56H CODE                   CODE

 Origin   Group

  Address         Publics by Value

 0000:0108       EXIT_STATUS
 0000:010C       MAP_TYPE
 0000:010E       MAP_SIZE_X
 0000:0110       MAP_SIZE_Y
 0000:0112       MAP_LOC_X
 0000:0114       MAP_LOC_Y
 0000:0116       GIRL_LOC_X
 0000:0118       GIRL_LOC_Y
 0000:011A       ANIME_XCHG_CHP1
 0000:011C       ANIME_XCHG_END1
 0000:011E       ANIME_XCHG_CHP2
 0000:0120       ANIME_XCHG_END2
 0000:0122       ANIME_XCHG_CHP3
 0000:0124       ANIME_XCHG_END3
 0000:0126       ANIME_XCHG_CHP4
 0000:0128       ANIME_XCHG_END4
 0000:0130       EFC_FALLS_LEN
 0000:0132       PARAM01
 0000:0134       PARAM02
 0000:0136       PARAM03
 0000:0138       PARAM04
 0000:013A       PARAM05
 0000:013C       PARAM06
 0000:02FA       MAIN_FUNCTION_INTER
 0000:030D       CHK_EVENT50N
 0000:0334       TIMER_SET
 0000:033D       TIMER_WAIT
 0000:0344       TIMER_CHECK
 0000:034B       TIME_OUT_CHECK
 0000:0352       VRAM98CHANGE
 0000:0359       XRANDAM
 0000:0360       MFLAG_MY
 0000:0362       ARAVRM
 0000:036C       BUF_MAP_OFS
 0000:036E       BUF_MAP_SEG
 0000:0370       BUF_ATTR_OFS
 0000:0372       BUF_ATTR_SEG
 0000:0374       BUF_BANK_OFS
 0000:0382       BUF_BANK_SEG
 0000:0430       MAINLOOP
 0000:0440       PRNAH
 0000:047B       PRINT
 0000:0492       DECSTR
 0000:04C9       INPUT
 0000:04FF       STRDEC
 0000:0538       HEXSTR
 0000:057A       STRHEX
 0000:05A7       BINSTR
 0000:05D2       STRBIN
 0000:05EF       STRCMP
 0000:0601       CLS
 0000:0614       CSLON
 0000:061B       CSLOFF
 0000:0622       INPCHR
 0000:062D       CHPUT
 0000:063B       KESCAP
 0000:067A       KEYLOD
 0000:0691       PRNAB
 0000:06A5       LOCATE
 0000:06A6       LFPRN
 0000:06AF       D10STR
 0000:06F4       STRZTS
 0000:0710       STRSPL
 0000:0747       MEMCPY
 0000:074E       CRTOFF
 0000:0750       INPUTOFF
 0000:08A0       MAP_LOAD
 0000:08C0       MAP_RELOAD
 0000:09C6       MAP_MAP_RELOAD
 0000:09EE       MAP_STRAT
 0000:0A56       MAP_MOVE
 0000:0B81       MAP_IN_SLCT
 0000:0C1C       MAP_SHIFT
 0000:0D31       MAP_EFC_SET
 0000:0D47       MAP_REDRAW
 0000:0D54       MAP_RPG_MODE
 0000:0D5B       MAP_NORMAL_MODE
 0000:0D62       MAP_SETING
 0000:0D8E       MAP_SET_GIRL_DIR
 0000:0D92       MAP_GET_GIRL_DIR
 0000:0D96       MAP_CAMP
 0000:0E14       MAP_EDITION
 0000:0E3B       MAP_SYUGO_SET
 0000:4E3C       IN_VGA_PORT
 0000:4E3E       OUT_VGA_PORT
 0000:4E40       IN_VGA_WPORT
 0000:4E42       OUT_VGA_WPORT
 0000:4E44       IN_7220_GDC_PORT
 0000:4E46       OUT_7220_GDC_PORT
 0000:4E48       IN_8259_PORT
 0000:4E4A       OUT_8259_PORT
 0000:4E4C       IN_8255_PORT
 0000:4E4E       OUT_8255_PORT
 0000:4E50       IN_8251_PORT
 0000:4E52       OUT_8251_PORT
 0000:4E54       OUT_8253_PORT
